; Function Attrs: nounwind uwtable
define internal ptr @Example_getattro(ptr noundef %0, ptr noundef %1) #0 {
  %3 = getelementptr inbounds nuw i8, ptr %0, i64 16
  %4 = load ptr, ptr %3, align 8, !tbaa !15
  %.not = icmp eq ptr %4, null
  br i1 %.not, label %_Py_NewRef.exit, label %5

5:                                                ; preds = %2
  %6 = tail call ptr @PyDict_GetItemWithError(ptr noundef nonnull %4, ptr noundef %1) #4
  %.not11 = icmp eq ptr %6, null
  br i1 %.not11, label %12, label %7

7:                                                ; preds = %5
  %8 = load i32, ptr %6, align 8, !tbaa !8
  %9 = icmp slt i32 %8, 0
  br i1 %9, label %_Py_NewRef.exit.thread, label %10

10:                                               ; preds = %7
  %11 = add nuw i32 %8, 1
  store i32 %11, ptr %6, align 8, !tbaa !8
  br label %_Py_NewRef.exit.thread

12:                                               ; preds = %5
  %13 = tail call ptr @PyErr_Occurred() #4
  %.not12 = icmp eq ptr %13, null
  br i1 %.not12, label %_Py_NewRef.exit, label %_Py_NewRef.exit.thread

_Py_NewRef.exit:                                  ; preds = %12, %2
  %14 = tail call ptr @PyObject_GenericGetAttr(ptr noundef nonnull %0, ptr noundef %1) #4
  br label %_Py_NewRef.exit.thread

_Py_NewRef.exit.thread:                           ; preds = %10, %7, %12, %_Py_NewRef.exit
  %.1 = phi ptr [ %14, %_Py_NewRef.exit ], [ %6, %10 ], [ %6, %7 ], [ null, %12 ]
  ret ptr %.1
}